target datalayout = "e-m:e-p270:32:32-p271:32:32-p272:64:64-i64:64-i128:128-f80:128-n8:16:32:64-S128"
target triple = "x86_64-pc-linux-gnu"

@.str.13 = private unnamed_addr constant [13 x i8] c", Status: %s\00", align 1

; Function Attrs: nounwind uwtable
define hidden void @dissect_zbee_zdp_rsp_discovery_store(ptr noundef %0, ptr noundef %1, ptr noundef %2) #0 {
  %4 = alloca ptr, align 8
  %5 = alloca ptr, align 8
  %6 = alloca ptr, align 8
  %7 = alloca i32, align 4
  %8 = alloca i8, align 1
  store ptr %0, ptr %4, align 8
  store ptr %1, ptr %5, align 8
  store ptr %2, ptr %6, align 8
  store i32 0, ptr %7, align 4
  %9 = load ptr, ptr %6, align 8
  %10 = load ptr, ptr %4, align 8
  %11 = call zeroext i8 @zdp_parse_status(ptr noundef %9, ptr noundef %10, ptr noundef %7)
  store i8 %11, ptr %8, align 1
  %12 = load ptr, ptr %6, align 8
  %13 = load ptr, ptr %5, align 8
  %14 = load i8, ptr %8, align 1
  %15 = call ptr @zdp_status_name(i8 noundef zeroext %14)
  call void (ptr, ptr, ptr, ...) @zbee_append_info(ptr noundef %12, ptr noundef %13, ptr noundef @.str.13, ptr noundef %15)
  %16 = load ptr, ptr %4, align 8
  %17 = load i32, ptr %7, align 4
  %18 = load ptr, ptr %5, align 8
  %19 = load ptr, ptr %6, align 8
  call void @zdp_dump_excess(ptr noundef %16, i32 noundef %17, ptr noundef %18, ptr noundef %19)
  ret void
}